; ModuleID = '57/225.c'
source_filename = "57/225.c"
target datalayout = "e-m:e-p270:32:32-p271:32:32-p272:64:64-i64:64-f80:128-n8:16:32:64-S128"
target triple = "x86_64-pc-linux-gnu"

@.str = private unnamed_addr constant [3 x i8] c"%d\00", align 1
@.str.1 = private unnamed_addr constant [3 x i8] c"%s\00", align 1
@.str.2 = private unnamed_addr constant [3 x i8] c"%c\00", align 1
@.str.3 = private unnamed_addr constant [2 x i8] c"\0A\00", align 1

; Function Attrs: noinline nounwind uwtable
define dso_local void @main() #0 {
  %1 = alloca i32, align 4
  %2 = alloca i32, align 4
  %3 = alloca i32, align 4
  %4 = alloca [50 x [30 x i8]], align 16
  %5 = alloca [50 x i32], align 16
  %6 = call i32 (i8*, ...) @__isoc99_scanf(i8* getelementptr inbounds ([3 x i8], [3 x i8]* @.str, i64 0, i64 0), i32* %1)
  store i32 0, i32* %2, align 4
  br label %7

7:                                                ; preds = %16, %0
  %8 = load i32, i32* %2, align 4
  %9 = load i32, i32* %1, align 4
  %10 = icmp slt i32 %8, %9
  br i1 %10, label %11, label %19

11:                                               ; preds = %7
  %12 = load i32, i32* %2, align 4
  %13 = sext i32 %12 to i64
  %14 = getelementptr inbounds [50 x [30 x i8]], [50 x [30 x i8]]* %4, i64 0, i64 %13
  %15 = call i32 (i8*, ...) @__isoc99_scanf(i8* getelementptr inbounds ([3 x i8], [3 x i8]* @.str.1, i64 0, i64 0), [30 x i8]* %14)
  br label %16

16:                                               ; preds = %11
  %17 = load i32, i32* %2, align 4
  %18 = add nsw i32 %17, 1
  store i32 %18, i32* %2, align 4
  br label %7

19:                                               ; preds = %7
  store i32 0, i32* %2, align 4
  br label %20

20:                                               ; preds = %34, %19
  %21 = load i32, i32* %2, align 4
  %22 = load i32, i32* %1, align 4
  %23 = icmp slt i32 %21, %22
  br i1 %23, label %24, label %37

24:                                               ; preds = %20
  %25 = load i32, i32* %2, align 4
  %26 = sext i32 %25 to i64
  %27 = getelementptr inbounds [50 x [30 x i8]], [50 x [30 x i8]]* %4, i64 0, i64 %26
  %28 = getelementptr inbounds [30 x i8], [30 x i8]* %27, i64 0, i64 0
  %29 = call i64 @strlen(i8* %28) #3
  %30 = trunc i64 %29 to i32
  %31 = load i32, i32* %2, align 4
  %32 = sext i32 %31 to i64
  %33 = getelementptr inbounds [50 x i32], [50 x i32]* %5, i64 0, i64 %32
  store i32 %30, i32* %33, align 4
  br label %34

34:                                               ; preds = %24
  %35 = load i32, i32* %2, align 4
  %36 = add nsw i32 %35, 1
  store i32 %36, i32* %2, align 4
  br label %20

37:                                               ; preds = %20
  store i32 0, i32* %2, align 4
  br label %38

38:                                               ; preds = %219, %37
  %39 = load i32, i32* %2, align 4
  %40 = load i32, i32* %1, align 4
  %41 = icmp slt i32 %39, %40
  br i1 %41, label %42, label %222

42:                                               ; preds = %38
  %43 = load i32, i32* %2, align 4
  %44 = sext i32 %43 to i64
  %45 = getelementptr inbounds [50 x [30 x i8]], [50 x [30 x i8]]* %4, i64 0, i64 %44
  %46 = load i32, i32* %2, align 4
  %47 = sext i32 %46 to i64
  %48 = getelementptr inbounds [50 x i32], [50 x i32]* %5, i64 0, i64 %47
  %49 = load i32, i32* %48, align 4
  %50 = sub nsw i32 %49, 2
  %51 = sext i32 %50 to i64
  %52 = getelementptr inbounds [30 x i8], [30 x i8]* %45, i64 0, i64 %51
  %53 = load i8, i8* %52, align 1
  %54 = sext i8 %53 to i32
  %55 = icmp eq i32 %54, 101
  br i1 %55, label %56, label %95

56:                                               ; preds = %42
  %57 = load i32, i32* %2, align 4
  %58 = sext i32 %57 to i64
  %59 = getelementptr inbounds [50 x [30 x i8]], [50 x [30 x i8]]* %4, i64 0, i64 %58
  %60 = load i32, i32* %2, align 4
  %61 = sext i32 %60 to i64
  %62 = getelementptr inbounds [50 x i32], [50 x i32]* %5, i64 0, i64 %61
  %63 = load i32, i32* %62, align 4
  %64 = sub nsw i32 %63, 1
  %65 = sext i32 %64 to i64
  %66 = getelementptr inbounds [30 x i8], [30 x i8]* %59, i64 0, i64 %65
  %67 = load i8, i8* %66, align 1
  %68 = sext i8 %67 to i32
  %69 = icmp eq i32 %68, 114
  br i1 %69, label %70, label %94

70:                                               ; preds = %56
  store i32 0, i32* %3, align 4
  br label %71

71:                                               ; preds = %89, %70
  %72 = load i32, i32* %3, align 4
  %73 = load i32, i32* %2, align 4
  %74 = sext i32 %73 to i64
  %75 = getelementptr inbounds [50 x i32], [50 x i32]* %5, i64 0, i64 %74
  %76 = load i32, i32* %75, align 4
  %77 = sub nsw i32 %76, 2
  %78 = icmp slt i32 %72, %77
  br i1 %78, label %79, label %92

79:                                               ; preds = %71
  %80 = load i32, i32* %2, align 4
  %81 = sext i32 %80 to i64
  %82 = getelementptr inbounds [50 x [30 x i8]], [50 x [30 x i8]]* %4, i64 0, i64 %81
  %83 = load i32, i32* %3, align 4
  %84 = sext i32 %83 to i64
  %85 = getelementptr inbounds [30 x i8], [30 x i8]* %82, i64 0, i64 %84
  %86 = load i8, i8* %85, align 1
  %87 = sext i8 %86 to i32
  %88 = call i32 (i8*, ...) @printf(i8* getelementptr inbounds ([3 x i8], [3 x i8]* @.str.2, i64 0, i64 0), i32 %87)
  br label %89

89:                                               ; preds = %79
  %90 = load i32, i32* %3, align 4
  %91 = add nsw i32 %90, 1
  store i32 %91, i32* %3, align 4
  br label %71

92:                                               ; preds = %71
  %93 = call i32 (i8*, ...) @printf(i8* getelementptr inbounds ([2 x i8], [2 x i8]* @.str.3, i64 0, i64 0))
  br label %94

94:                                               ; preds = %92, %56
  br label %218

95:                                               ; preds = %42
  %96 = load i32, i32* %2, align 4
  %97 = sext i32 %96 to i64
  %98 = getelementptr inbounds [50 x [30 x i8]], [50 x [30 x i8]]* %4, i64 0, i64 %97
  %99 = load i32, i32* %2, align 4
  %100 = sext i32 %99 to i64
  %101 = getelementptr inbounds [50 x i32], [50 x i32]* %5, i64 0, i64 %100
  %102 = load i32, i32* %101, align 4
  %103 = sub nsw i32 %102, 2
  %104 = sext i32 %103 to i64
  %105 = getelementptr inbounds [30 x i8], [30 x i8]* %98, i64 0, i64 %104
  %106 = load i8, i8* %105, align 1
  %107 = sext i8 %106 to i32
  %108 = icmp eq i32 %107, 108
  br i1 %108, label %109, label %148

109:                                              ; preds = %95
  %110 = load i32, i32* %2, align 4
  %111 = sext i32 %110 to i64
  %112 = getelementptr inbounds [50 x [30 x i8]], [50 x [30 x i8]]* %4, i64 0, i64 %111
  %113 = load i32, i32* %2, align 4
  %114 = sext i32 %113 to i64
  %115 = getelementptr inbounds [50 x i32], [50 x i32]* %5, i64 0, i64 %114
  %116 = load i32, i32* %115, align 4
  %117 = sub nsw i32 %116, 1
  %118 = sext i32 %117 to i64
  %119 = getelementptr inbounds [30 x i8], [30 x i8]* %112, i64 0, i64 %118
  %120 = load i8, i8* %119, align 1
  %121 = sext i8 %120 to i32
  %122 = icmp eq i32 %121, 121
  br i1 %122, label %123, label %147

123:                                              ; preds = %109
  store i32 0, i32* %3, align 4
  br label %124

124:                                              ; preds = %142, %123
  %125 = load i32, i32* %3, align 4
  %126 = load i32, i32* %2, align 4
  %127 = sext i32 %126 to i64
  %128 = getelementptr inbounds [50 x i32], [50 x i32]* %5, i64 0, i64 %127
  %129 = load i32, i32* %128, align 4
  %130 = sub nsw i32 %129, 2
  %131 = icmp slt i32 %125, %130
  br i1 %131, label %132, label %145

132:                                              ; preds = %124
  %133 = load i32, i32* %2, align 4
  %134 = sext i32 %133 to i64
  %135 = getelementptr inbounds [50 x [30 x i8]], [50 x [30 x i8]]* %4, i64 0, i64 %134
  %136 = load i32, i32* %3, align 4
  %137 = sext i32 %136 to i64
  %138 = getelementptr inbounds [30 x i8], [30 x i8]* %135, i64 0, i64 %137
  %139 = load i8, i8* %138, align 1
  %140 = sext i8 %139 to i32
  %141 = call i32 (i8*, ...) @printf(i8* getelementptr inbounds ([3 x i8], [3 x i8]* @.str.2, i64 0, i64 0), i32 %140)
  br label %142

142:                                              ; preds = %132
  %143 = load i32, i32* %3, align 4
  %144 = add nsw i32 %143, 1
  store i32 %144, i32* %3, align 4
  br label %124

145:                                              ; preds = %124
  %146 = call i32 (i8*, ...) @printf(i8* getelementptr inbounds ([2 x i8], [2 x i8]* @.str.3, i64 0, i64 0))
  br label %147

147:                                              ; preds = %145, %109
  br label %217

148:                                              ; preds = %95
  %149 = load i32, i32* %2, align 4
  %150 = sext i32 %149 to i64
  %151 = getelementptr inbounds [50 x [30 x i8]], [50 x [30 x i8]]* %4, i64 0, i64 %150
  %152 = load i32, i32* %2, align 4
  %153 = sext i32 %152 to i64
  %154 = getelementptr inbounds [50 x i32], [50 x i32]* %5, i64 0, i64 %153
  %155 = load i32, i32* %154, align 4
  %156 = sub nsw i32 %155, 3
  %157 = sext i32 %156 to i64
  %158 = getelementptr inbounds [30 x i8], [30 x i8]* %151, i64 0, i64 %157
  %159 = load i8, i8* %158, align 1
  %160 = sext i8 %159 to i32
  %161 = icmp eq i32 %160, 105
  br i1 %161, label %162, label %216

162:                                              ; preds = %148
  %163 = load i32, i32* %2, align 4
  %164 = sext i32 %163 to i64
  %165 = getelementptr inbounds [50 x [30 x i8]], [50 x [30 x i8]]* %4, i64 0, i64 %164
  %166 = load i32, i32* %2, align 4
  %167 = sext i32 %166 to i64
  %168 = getelementptr inbounds [50 x i32], [50 x i32]* %5, i64 0, i64 %167
  %169 = load i32, i32* %168, align 4
  %170 = sub nsw i32 %169, 2
  %171 = sext i32 %170 to i64
  %172 = getelementptr inbounds [30 x i8], [30 x i8]* %165, i64 0, i64 %171
  %173 = load i8, i8* %172, align 1
  %174 = sext i8 %173 to i32
  %175 = icmp eq i32 %174, 110
  br i1 %175, label %176, label %215

176:                                              ; preds = %162
  %177 = load i32, i32* %2, align 4
  %178 = sext i32 %177 to i64
  %179 = getelementptr inbounds [50 x [30 x i8]], [50 x [30 x i8]]* %4, i64 0, i64 %178
  %180 = load i32, i32* %2, align 4
  %181 = sext i32 %180 to i64
  %182 = getelementptr inbounds [50 x i32], [50 x i32]* %5, i64 0, i64 %181
  %183 = load i32, i32* %182, align 4
  %184 = sub nsw i32 %183, 1
  %185 = sext i32 %184 to i64
  %186 = getelementptr inbounds [30 x i8], [30 x i8]* %179, i64 0, i64 %185
  %187 = load i8, i8* %186, align 1
  %188 = sext i8 %187 to i32
  %189 = icmp eq i32 %188, 103
  br i1 %189, label %190, label %214

190:                                              ; preds = %176
  store i32 0, i32* %3, align 4
  br label %191

191:                                              ; preds = %209, %190
  %192 = load i32, i32* %3, align 4
  %193 = load i32, i32* %2, align 4
  %194 = sext i32 %193 to i64
  %195 = getelementptr inbounds [50 x i32], [50 x i32]* %5, i64 0, i64 %194
  %196 = load i32, i32* %195, align 4
  %197 = sub nsw i32 %196, 3
  %198 = icmp slt i32 %192, %197
  br i1 %198, label %199, label %212

199:                                              ; preds = %191
  %200 = load i32, i32* %2, align 4
  %201 = sext i32 %200 to i64
  %202 = getelementptr inbounds [50 x [30 x i8]], [50 x [30 x i8]]* %4, i64 0, i64 %201
  %203 = load i32, i32* %3, align 4
  %204 = sext i32 %203 to i64
  %205 = getelementptr inbounds [30 x i8], [30 x i8]* %202, i64 0, i64 %204
  %206 = load i8, i8* %205, align 1
  %207 = sext i8 %206 to i32
  %208 = call i32 (i8*, ...) @printf(i8* getelementptr inbounds ([3 x i8], [3 x i8]* @.str.2, i64 0, i64 0), i32 %207)
  br label %209

209:                                              ; preds = %199
  %210 = load i32, i32* %3, align 4
  %211 = add nsw i32 %210, 1
  store i32 %211, i32* %3, align 4
  br label %191

212:                                              ; preds = %191
  %213 = call i32 (i8*, ...) @printf(i8* getelementptr inbounds ([2 x i8], [2 x i8]* @.str.3, i64 0, i64 0))
  br label %214

214:                                              ; preds = %212, %176
  br label %215

215:                                              ; preds = %214, %162
  br label %216

216:                                              ; preds = %215, %148
  br label %217

217:                                              ; preds = %216, %147
  br label %218

218:                                              ; preds = %217, %94
  br label %219

219:                                              ; preds = %218
  %220 = load i32, i32* %2, align 4
  %221 = add nsw i32 %220, 1
  store i32 %221, i32* %2, align 4
  br label %38

222:                                              ; preds = %38
  ret void
}

declare dso_local i32 @__isoc99_scanf(i8*, ...) #1

; Function Attrs: nounwind readonly
declare dso_local i64 @strlen(i8*) #2

declare dso_local i32 @printf(i8*, ...) #1


!llvm.module.flags = !{!0}
!llvm.ident = !{!1}

!0 = !{i32 1, !"wchar_size", i32 4}
!1 = !{!"clang version 10.0.0-4ubuntu1 "}
