; ModuleID = 'source-C-CXX/56/225.c'
source_filename = "source-C-CXX/56/225.c"
target datalayout = "e-m:e-p270:32:32-p271:32:32-p272:64:64-i64:64-f80:128-n8:16:32:64-S128"
target triple = "x86_64-pc-linux-gnu"

@.str = private unnamed_addr constant [3 x i8] c"%d\00", align 1
@.str.1 = private unnamed_addr constant [3 x i8] c"%s\00", align 1

; Function Attrs: nofree nounwind sspstrong uwtable
define dso_local void @main() local_unnamed_addr #0 {
  %1 = alloca i32, align 4
  %2 = alloca [50 x [30 x i8]], align 16
  %3 = alloca [50 x i32], align 16
  %4 = bitcast i32* %1 to i8*
  call void @llvm.lifetime.start.p0i8(i64 4, i8* nonnull %4) #5
  %5 = getelementptr inbounds [50 x [30 x i8]], [50 x [30 x i8]]* %2, i64 0, i64 0, i64 0
  call void @llvm.lifetime.start.p0i8(i64 1500, i8* nonnull %5) #5
  %6 = bitcast [50 x i32]* %3 to i8*
  call void @llvm.lifetime.start.p0i8(i64 200, i8* nonnull %6) #5
  %7 = call i32 (i8*, ...) @__isoc99_scanf(i8* getelementptr inbounds ([3 x i8], [3 x i8]* @.str, i64 0, i64 0), i32* nonnull %1)
  %8 = load i32, i32* %1, align 4, !tbaa !5
  %9 = icmp sgt i32 %8, 0
  br i1 %9, label %14, label %108

10:                                               ; preds = %14
  %11 = icmp sgt i32 %19, 0
  br i1 %11, label %12, label %108

12:                                               ; preds = %10
  %13 = zext i32 %19 to i64
  br label %23

14:                                               ; preds = %0, %14
  %15 = phi i64 [ %18, %14 ], [ 0, %0 ]
  %16 = getelementptr inbounds [50 x [30 x i8]], [50 x [30 x i8]]* %2, i64 0, i64 %15
  %17 = call i32 (i8*, ...) @__isoc99_scanf(i8* getelementptr inbounds ([3 x i8], [3 x i8]* @.str.1, i64 0, i64 0), [30 x i8]* nonnull %16)
  %18 = add nuw nsw i64 %15, 1
  %19 = load i32, i32* %1, align 4, !tbaa !5
  %20 = sext i32 %19 to i64
  %21 = icmp slt i64 %18, %20
  br i1 %21, label %14, label %10, !llvm.loop !9

22:                                               ; preds = %23
  br i1 %11, label %31, label %108

23:                                               ; preds = %12, %23
  %24 = phi i64 [ 0, %12 ], [ %29, %23 ]
  %25 = getelementptr inbounds [50 x [30 x i8]], [50 x [30 x i8]]* %2, i64 0, i64 %24, i64 0
  %26 = call i64 @strlen(i8* noundef nonnull %25) #6
  %27 = trunc i64 %26 to i32
  %28 = getelementptr inbounds [50 x i32], [50 x i32]* %3, i64 0, i64 %24
  store i32 %27, i32* %28, align 4, !tbaa !5
  %29 = add nuw nsw i64 %24, 1
  %30 = icmp eq i64 %29, %13
  br i1 %30, label %22, label %23, !llvm.loop !11

31:                                               ; preds = %22, %103
  %32 = phi i64 [ %104, %103 ], [ 0, %22 ]
  %33 = getelementptr inbounds [50 x i32], [50 x i32]* %3, i64 0, i64 %32
  %34 = load i32, i32* %33, align 4, !tbaa !5
  %35 = add i32 %34, -2
  %36 = sext i32 %35 to i64
  %37 = getelementptr inbounds [50 x [30 x i8]], [50 x [30 x i8]]* %2, i64 0, i64 %32, i64 %36
  %38 = load i8, i8* %37, align 1, !tbaa !12
  switch i8 %38, label %75 [
    i8 101, label %39
    i8 108, label %57
  ]

39:                                               ; preds = %31
  %40 = add nsw i32 %34, -1
  %41 = sext i32 %40 to i64
  %42 = getelementptr inbounds [50 x [30 x i8]], [50 x [30 x i8]]* %2, i64 0, i64 %32, i64 %41
  %43 = load i8, i8* %42, align 1, !tbaa !12
  %44 = icmp eq i8 %43, 114
  br i1 %44, label %45, label %103

45:                                               ; preds = %39
  %46 = icmp sgt i32 %34, 2
  br i1 %46, label %47, label %101

47:                                               ; preds = %45
  %48 = zext i32 %35 to i64
  br label %49

49:                                               ; preds = %47, %49
  %50 = phi i64 [ 0, %47 ], [ %55, %49 ]
  %51 = getelementptr inbounds [50 x [30 x i8]], [50 x [30 x i8]]* %2, i64 0, i64 %32, i64 %50
  %52 = load i8, i8* %51, align 1, !tbaa !12
  %53 = sext i8 %52 to i32
  %54 = call i32 @putchar(i32 %53)
  %55 = add nuw nsw i64 %50, 1
  %56 = icmp eq i64 %55, %48
  br i1 %56, label %101, label %49, !llvm.loop !13

57:                                               ; preds = %31
  %58 = add nsw i32 %34, -1
  %59 = sext i32 %58 to i64
  %60 = getelementptr inbounds [50 x [30 x i8]], [50 x [30 x i8]]* %2, i64 0, i64 %32, i64 %59
  %61 = load i8, i8* %60, align 1, !tbaa !12
  %62 = icmp eq i8 %61, 121
  br i1 %62, label %63, label %103

63:                                               ; preds = %57
  %64 = icmp sgt i32 %34, 2
  br i1 %64, label %65, label %101

65:                                               ; preds = %63
  %66 = zext i32 %35 to i64
  br label %67

67:                                               ; preds = %65, %67
  %68 = phi i64 [ 0, %65 ], [ %73, %67 ]
  %69 = getelementptr inbounds [50 x [30 x i8]], [50 x [30 x i8]]* %2, i64 0, i64 %32, i64 %68
  %70 = load i8, i8* %69, align 1, !tbaa !12
  %71 = sext i8 %70 to i32
  %72 = call i32 @putchar(i32 %71)
  %73 = add nuw nsw i64 %68, 1
  %74 = icmp eq i64 %73, %66
  br i1 %74, label %101, label %67, !llvm.loop !14

75:                                               ; preds = %31
  %76 = add i32 %34, -3
  %77 = sext i32 %76 to i64
  %78 = getelementptr inbounds [50 x [30 x i8]], [50 x [30 x i8]]* %2, i64 0, i64 %32, i64 %77
  %79 = load i8, i8* %78, align 1, !tbaa !12
  %80 = icmp eq i8 %79, 105
  %81 = icmp eq i8 %38, 110
  %82 = select i1 %80, i1 %81, i1 false
  br i1 %82, label %83, label %103

83:                                               ; preds = %75
  %84 = add nsw i32 %34, -1
  %85 = sext i32 %84 to i64
  %86 = getelementptr inbounds [50 x [30 x i8]], [50 x [30 x i8]]* %2, i64 0, i64 %32, i64 %85
  %87 = load i8, i8* %86, align 1, !tbaa !12
  %88 = icmp eq i8 %87, 103
  br i1 %88, label %89, label %103

89:                                               ; preds = %83
  %90 = icmp sgt i32 %34, 3
  br i1 %90, label %91, label %101

91:                                               ; preds = %89
  %92 = zext i32 %76 to i64
  br label %93

93:                                               ; preds = %91, %93
  %94 = phi i64 [ 0, %91 ], [ %99, %93 ]
  %95 = getelementptr inbounds [50 x [30 x i8]], [50 x [30 x i8]]* %2, i64 0, i64 %32, i64 %94
  %96 = load i8, i8* %95, align 1, !tbaa !12
  %97 = sext i8 %96 to i32
  %98 = call i32 @putchar(i32 %97)
  %99 = add nuw nsw i64 %94, 1
  %100 = icmp eq i64 %99, %92
  br i1 %100, label %101, label %93, !llvm.loop !15

101:                                              ; preds = %67, %49, %93, %89, %63, %45
  %102 = call i32 @putchar(i32 10)
  br label %103

103:                                              ; preds = %101, %39, %75, %83, %57
  %104 = add nuw nsw i64 %32, 1
  %105 = load i32, i32* %1, align 4, !tbaa !5
  %106 = sext i32 %105 to i64
  %107 = icmp slt i64 %104, %106
  br i1 %107, label %31, label %108, !llvm.loop !16

108:                                              ; preds = %103, %10, %0, %22
  call void @llvm.lifetime.end.p0i8(i64 200, i8* nonnull %6) #5
  call void @llvm.lifetime.end.p0i8(i64 1500, i8* nonnull %5) #5
  call void @llvm.lifetime.end.p0i8(i64 4, i8* nonnull %4) #5
  ret void
}

; Function Attrs: argmemonly mustprogress nofree nosync nounwind willreturn
declare void @llvm.lifetime.start.p0i8(i64 immarg, i8* nocapture) #1

; Function Attrs: nofree nounwind
declare noundef i32 @__isoc99_scanf(i8* nocapture noundef readonly, ...) local_unnamed_addr #2

; Function Attrs: argmemonly mustprogress nofree nounwind readonly willreturn
declare i64 @strlen(i8* nocapture) local_unnamed_addr #3

; Function Attrs: argmemonly mustprogress nofree nosync nounwind willreturn
declare void @llvm.lifetime.end.p0i8(i64 immarg, i8* nocapture) #1

; Function Attrs: nofree nounwind
declare noundef i32 @putchar(i32 noundef) local_unnamed_addr #4


!llvm.module.flags = !{!0, !1, !2, !3}
!llvm.ident = !{!4}

!0 = !{i32 1, !"wchar_size", i32 4}
!1 = !{i32 7, !"PIC Level", i32 2}
!2 = !{i32 7, !"PIE Level", i32 2}
!3 = !{i32 7, !"uwtable", i32 1}
!4 = !{!"clang version 13.0.0"}
!5 = !{!6, !6, i64 0}
!6 = !{!"int", !7, i64 0}
!7 = !{!"omnipotent char", !8, i64 0}
!8 = !{!"Simple C/C++ TBAA"}
!9 = distinct !{!9, !10}
!10 = !{!"llvm.loop.mustprogress"}
!11 = distinct !{!11, !10}
!12 = !{!7, !7, i64 0}
!13 = distinct !{!13, !10}
!14 = distinct !{!14, !10}
!15 = distinct !{!15, !10}
!16 = distinct !{!16, !10}
